; Function Attrs: nounwind sspstrong uwtable
define dso_local void @rb_fd_zero(ptr noundef nonnull readonly captures(none) %0) local_unnamed_addr #0 {
  %2 = getelementptr inbounds nuw i8, ptr %0, i64 8
  %3 = load ptr, ptr %2, align 8, !tbaa !304
  %.not = icmp eq ptr %3, null
  br i1 %.not, label %12, label %4

4:                                                ; preds = %1
  %5 = load i32, ptr %0, align 8, !tbaa !302
  %6 = add i32 %5, 63
  %7 = sdiv i32 %6, 64
  %8 = sext i32 %7 to i64
  %9 = icmp slt i32 %6, -63
  br i1 %9, label %10, label %rbimpl_size_mul_or_raise.exit, !prof !137

10:                                               ; preds = %4
  tail call void @ruby_malloc_size_overflow(i64 noundef 8, i64 noundef range(i64 -2147483648, 2147483648) %8) #38
  unreachable

rbimpl_size_mul_or_raise.exit:                    ; preds = %4
  %11 = shl nuw nsw i64 %8, 3
  tail call void @llvm.memset.p0.i64(ptr nonnull align 8 %3, i8 0, i64 %11, i1 false)
  br label %12

12:                                               ; preds = %rbimpl_size_mul_or_raise.exit, %1
  ret void
}